; Function Attrs: mustprogress uwtable
define hidden void @_ZN5zxing23SimpleAdaptiveBinarizer11getBlackRowEiNS_3RefINS_8BitArrayEEERNS_12ErrorHandlerE(ptr dead_on_unwind noalias writable sret(%"class.zxing::Ref.2") align 8 %0, ptr noundef nonnull align 8 dereferenceable(122) %1, i32 noundef %2, ptr noundef readonly captures(none) %3, ptr noundef nonnull align 8 dereferenceable(48) %4) unnamed_addr #0 align 2 personality ptr @__gxx_personality_v0 {
  %6 = alloca %"class.zxing::Ref.2", align 8
  %7 = getelementptr inbounds nuw i8, ptr %1, i64 56
  %8 = load ptr, ptr %7, align 8, !tbaa !25
  %.not = icmp eq ptr %8, null
  br i1 %.not, label %9, label %16

9:                                                ; preds = %5
  %10 = tail call noundef i32 @_ZN5zxing23SimpleAdaptiveBinarizer14binarizeImage0ERNS_12ErrorHandlerE(ptr noundef nonnull align 8 dereferenceable(122) %1, ptr noundef nonnull align 8 dereferenceable(48) %4)
  %11 = load ptr, ptr %4, align 8, !tbaa !12
  %12 = getelementptr inbounds nuw i8, ptr %11, i64 16
  %13 = load ptr, ptr %12, align 8
  %14 = tail call noundef i32 %13(ptr noundef nonnull align 8 dereferenceable(48) %4)
  %.not6 = icmp eq i32 %14, 0
  br i1 %.not6, label %16, label %15

15:                                               ; preds = %9
  store ptr null, ptr %0, align 8, !tbaa !26
  br label %_ZN5zxing3RefINS_8BitArrayEED2Ev.exit

16:                                               ; preds = %9, %5
  %17 = load ptr, ptr %3, align 8, !tbaa !26
  %.not.i.i = icmp eq ptr %17, null
  br i1 %.not.i.i, label %_ZN5zxing3RefINS_8BitArrayEEC2ERKS2_.exit, label %18

18:                                               ; preds = %16
  %19 = getelementptr inbounds nuw i8, ptr %17, i64 8
  %20 = load i32, ptr %19, align 8, !tbaa !9
  %21 = add i32 %20, 1
  store i32 %21, ptr %19, align 8, !tbaa !9
  br label %_ZN5zxing3RefINS_8BitArrayEEC2ERKS2_.exit

_ZN5zxing3RefINS_8BitArrayEEC2ERKS2_.exit:        ; preds = %16, %18
  store ptr %17, ptr %6, align 8, !tbaa !26
  invoke void @_ZN5zxing9Binarizer11getBlackRowEiNS_3RefINS_8BitArrayEEERNS_12ErrorHandlerE(ptr dead_on_unwind writable sret(%"class.zxing::Ref.2") align 8 %0, ptr noundef nonnull align 8 dereferenceable(72) %1, i32 noundef %2, ptr noundef nonnull %6, ptr noundef nonnull align 8 dereferenceable(48) %4)
          to label %22 unwind label %33

22:                                               ; preds = %_ZN5zxing3RefINS_8BitArrayEEC2ERKS2_.exit
  %23 = load ptr, ptr %6, align 8, !tbaa !26
  %.not.i = icmp eq ptr %23, null
  br i1 %.not.i, label %_ZN5zxing3RefINS_8BitArrayEED2Ev.exit, label %24

24:                                               ; preds = %22
  %25 = getelementptr inbounds nuw i8, ptr %23, i64 8
  %26 = load i32, ptr %25, align 8, !tbaa !9
  %27 = add i32 %26, -1
  store i32 %27, ptr %25, align 8, !tbaa !9
  %28 = icmp eq i32 %27, 0
  br i1 %28, label %29, label %_ZN5zxing3RefINS_8BitArrayEED2Ev.exit

29:                                               ; preds = %24
  store i32 -559026175, ptr %25, align 8, !tbaa !9
  %30 = load ptr, ptr %23, align 8, !tbaa !12
  %31 = getelementptr inbounds nuw i8, ptr %30, i64 8
  %32 = load ptr, ptr %31, align 8
  call void %32(ptr noundef nonnull align 8 dereferenceable(12) %23) #10
  br label %_ZN5zxing3RefINS_8BitArrayEED2Ev.exit

33:                                               ; preds = %_ZN5zxing3RefINS_8BitArrayEEC2ERKS2_.exit
  %34 = landingpad { ptr, i32 }
          cleanup
  %35 = load ptr, ptr %6, align 8, !tbaa !26
  %.not.i7 = icmp eq ptr %35, null
  br i1 %.not.i7, label %_ZN5zxing3RefINS_8BitArrayEED2Ev.exit8, label %36

36:                                               ; preds = %33
  %37 = getelementptr inbounds nuw i8, ptr %35, i64 8
  %38 = load i32, ptr %37, align 8, !tbaa !9
  %39 = add i32 %38, -1
  store i32 %39, ptr %37, align 8, !tbaa !9
  %40 = icmp eq i32 %39, 0
  br i1 %40, label %41, label %_ZN5zxing3RefINS_8BitArrayEED2Ev.exit8

41:                                               ; preds = %36
  store i32 -559026175, ptr %37, align 8, !tbaa !9
  %42 = load ptr, ptr %35, align 8, !tbaa !12
  %43 = getelementptr inbounds nuw i8, ptr %42, i64 8
  %44 = load ptr, ptr %43, align 8
  call void %44(ptr noundef nonnull align 8 dereferenceable(12) %35) #10
  br label %_ZN5zxing3RefINS_8BitArrayEED2Ev.exit8

_ZN5zxing3RefINS_8BitArrayEED2Ev.exit8:           ; preds = %33, %36, %41
  resume { ptr, i32 } %34

_ZN5zxing3RefINS_8BitArrayEED2Ev.exit:            ; preds = %29, %24, %22, %15
  ret void
}